; Function Attrs: nounwind uwtable
define internal fastcc i32 @Cba_ObjSign(ptr noundef captures(none) %0, i32 noundef %1) unnamed_addr #1 {
  %.not.i = icmp sgt i32 %1, -1
  br i1 %.not.i, label %8, label %3

3:                                                ; preds = %2
  %.val.i = load ptr, ptr %0, align 8
  %4 = getelementptr i8, ptr %.val.i, i64 24
  %.val.val.i = load ptr, ptr %4, align 8
  %5 = xor i32 %1, -1
  %6 = tail call ptr @Abc_NamStr(ptr noundef %.val.val.i, i32 noundef range(i32 -2147483648, 2147483647) %5) #26
  %7 = tail call i32 @atoi(ptr noundef %6) #27
  br label %Cba_FonRangeSize.exit

8:                                                ; preds = %2
  %9 = getelementptr i8, ptr %0, i64 284
  %.val.i.i.i = load i32, ptr %9, align 4
  %10 = icmp slt i32 %.val.i.i.i, 1
  br i1 %10, label %Cba_NtkRangeSize.exit.i, label %Cba_FonRange.exit.i

Cba_FonRange.exit.i:                              ; preds = %8
  %11 = getelementptr inbounds nuw i8, ptr %0, i64 280
  %12 = add nuw nsw i32 %1, 1
  tail call fastcc void @Vec_IntFillExtra(ptr noundef nonnull %11, i32 noundef %12, i32 noundef 0)
  %13 = getelementptr i8, ptr %0, i64 288
  %.val.i.i.i.i = load ptr, ptr %13, align 8
  %14 = zext nneg i32 %1 to i64
  %15 = getelementptr inbounds nuw i32, ptr %.val.i.i.i.i, i64 %14
  %16 = load i32, ptr %15, align 4
  %.not.i.i.i = icmp ult i32 %16, 2
  br i1 %.not.i.i.i, label %Cba_NtkRangeSize.exit.i, label %17

17:                                               ; preds = %Cba_FonRange.exit.i
  %18 = load ptr, ptr %0, align 8
  %19 = getelementptr inbounds nuw i8, ptr %18, i64 40
  %20 = load ptr, ptr %19, align 8
  %21 = getelementptr inbounds nuw i8, ptr %20, i64 8
  %22 = load ptr, ptr %21, align 8
  %23 = shl nsw i32 %16, 1
  %24 = and i32 %23, -4
  %25 = getelementptr i8, ptr %22, i64 8
  %.val.i.i.i.i.i = load ptr, ptr %25, align 8
  %26 = sext i32 %24 to i64
  %27 = getelementptr inbounds i32, ptr %.val.i.i.i.i.i, i64 %26
  %28 = load i32, ptr %27, align 4
  %29 = getelementptr inbounds nuw i8, ptr %27, i64 4
  %30 = load i32, ptr %29, align 4
  %31 = sub nsw i32 %28, %30
  br label %Cba_NtkRangeSize.exit.i

Cba_NtkRangeSize.exit.i:                          ; preds = %17, %Cba_FonRange.exit.i, %8
  %32 = phi i32 [ %31, %17 ], [ 0, %Cba_FonRange.exit.i ], [ 0, %8 ]
  %33 = tail call i32 @llvm.abs.i32(i32 %32, i1 true)
  %34 = add nuw nsw i32 %33, 1
  br label %Cba_FonRangeSize.exit

Cba_FonRangeSize.exit:                            ; preds = %3, %Cba_NtkRangeSize.exit.i
  %35 = phi i32 [ %7, %3 ], [ %34, %Cba_NtkRangeSize.exit.i ]
  %36 = getelementptr i8, ptr %0, i64 128
  %.val.i3 = load ptr, ptr %36, align 8
  %37 = sext i32 %1 to i64
  %38 = getelementptr inbounds i32, ptr %.val.i3, i64 %37
  %39 = load i32, ptr %38, align 4
  %.not.i.i = icmp sgt i32 %39, -1
  br i1 %.not.i.i, label %47, label %40

40:                                               ; preds = %Cba_FonRangeSize.exit
  %.val.i.i = load ptr, ptr %0, align 8
  %41 = getelementptr i8, ptr %.val.i.i, i64 24
  %.val.val.i.i = load ptr, ptr %41, align 8
  %42 = xor i32 %39, -1
  %43 = tail call ptr @Abc_NamStr(ptr noundef %.val.val.i.i, i32 noundef range(i32 -2147483648, 2147483647) %42) #26
  %44 = tail call ptr @strchr(ptr noundef nonnull dereferenceable(1) %43, i32 noundef 115) #27
  %45 = icmp ne ptr %44, null
  %46 = zext i1 %45 to i32
  br label %Cba_ObjSigned.exit

47:                                               ; preds = %Cba_FonRangeSize.exit
  %48 = getelementptr i8, ptr %0, i64 284
  %.val.i.i.i4 = load i32, ptr %48, align 4
  %49 = icmp slt i32 %.val.i.i.i4, 1
  br i1 %49, label %Cba_ObjSigned.exit, label %50

50:                                               ; preds = %47
  %51 = getelementptr inbounds nuw i8, ptr %0, i64 280
  %52 = add nuw nsw i32 %39, 1
  tail call fastcc void @Vec_IntFillExtra(ptr noundef nonnull %51, i32 noundef %52, i32 noundef 0)
  %53 = getelementptr i8, ptr %0, i64 288
  %.val.i.i.i.i5 = load ptr, ptr %53, align 8
  %54 = zext nneg i32 %39 to i64
  %55 = getelementptr inbounds nuw i32, ptr %.val.i.i.i.i5, i64 %54
  %56 = load i32, ptr %55, align 4
  %57 = and i32 %56, 1
  br label %Cba_ObjSigned.exit

Cba_ObjSigned.exit:                               ; preds = %40, %47, %50
  %58 = phi i32 [ %46, %40 ], [ %57, %50 ], [ 0, %47 ]
  %59 = shl nsw i32 %35, 1
  %60 = or disjoint i32 %58, %59
  ret i32 %60
}